target datalayout = "e-m:e-p270:32:32-p271:32:32-p272:64:64-i64:64-i128:128-f80:128-n8:16:32:64-S128"
target triple = "x86_64-pc-linux-gnu"

%"class.cv::RNG" = type { i64 }
%"struct.cv::CoreTLSData" = type { %"class.cv::RNG", %"class.cv::ocl::OpenCLExecutionContext", i8, i32, i32, i32 }
%"class.cv::ocl::OpenCLExecutionContext" = type { %"class.std::shared_ptr" }
%"class.std::shared_ptr" = type { %"class.std::__shared_ptr" }
%"class.std::__shared_ptr" = type { ptr, %"class.std::__shared_count" }
%"class.std::__shared_count" = type { ptr }
%"class.cv::utils::trace::details::Region" = type <{ ptr, i32, [4 x i8] }>

; Function Attrs: mustprogress uwtable
define noundef nonnull align 8 dereferenceable(8) ptr @_ZN2cv6theRNGEv() #0 {
  %1 = call noundef nonnull align 8 dereferenceable(40) ptr @_ZN2cv14getCoreTlsDataEv()
  %2 = getelementptr inbounds %"struct.cv::CoreTLSData", ptr %1, i32 0, i32 0
  ret ptr %2
}

; Function Attrs: mustprogress uwtable
define void @_ZN2cv5randuERKNS_17_InputOutputArrayERKNS_11_InputArrayES5_(ptr noundef nonnull align 8 dereferenceable(24) %0, ptr noundef nonnull align 8 dereferenceable(24) %1, ptr noundef nonnull align 8 dereferenceable(24) %2) #0 personality ptr @__gxx_personality_v0 {
  %4 = alloca ptr, align 8
  %5 = alloca ptr, align 8
  %6 = alloca ptr, align 8
  %7 = alloca %"class.cv::utils::trace::details::Region", align 8
  %8 = alloca ptr, align 8
  %9 = alloca i32, align 4
  store ptr %0, ptr %4, align 8
  store ptr %1, ptr %5, align 8
  store ptr %2, ptr %6, align 8
  call void @_ZN2cv5utils5trace7details6RegionC1ERKNS3_21LocationStaticStorageE(ptr noundef nonnull align 8 dereferenceable(12) %7, ptr noundef nonnull align 8 dereferenceable(32) @_ZZN2cv5randuERKNS_17_InputOutputArrayERKNS_11_InputArrayES5_E25__cv_trace_location_fn667)
  %10 = invoke noundef nonnull align 8 dereferenceable(8) ptr @_ZN2cv6theRNGEv()
          to label %11 unwind label %16

11:                                               ; preds = %3
  %12 = load ptr, ptr %4, align 8
  %13 = load ptr, ptr %5, align 8
  %14 = load ptr, ptr %6, align 8
  invoke void @_ZN2cv3RNG4fillERKNS_17_InputOutputArrayEiRKNS_11_InputArrayES6_b(ptr noundef nonnull align 8 dereferenceable(8) %10, ptr noundef nonnull align 8 dereferenceable(24) %12, i32 noundef 0, ptr noundef nonnull align 8 dereferenceable(24) %13, ptr noundef nonnull align 8 dereferenceable(24) %14, i1 noundef zeroext false)
          to label %15 unwind label %16

15:                                               ; preds = %11
  call void @_ZN2cv5utils5trace7details6RegionD2Ev(ptr noundef nonnull align 8 dereferenceable(12) %7) #12
  ret void

16:                                               ; preds = %11, %3
  %17 = landingpad { ptr, i32 }
          cleanup
  %18 = extractvalue { ptr, i32 } %17, 0
  store ptr %18, ptr %8, align 8
  %19 = extractvalue { ptr, i32 } %17, 1
  store i32 %19, ptr %9, align 4
  call void @_ZN2cv5utils5trace7details6RegionD2Ev(ptr noundef nonnull align 8 dereferenceable(12) %7) #12
  br label %20

20:                                               ; preds = %16
  %21 = load ptr, ptr %8, align 8
  %22 = load i32, ptr %9, align 4
  %23 = insertvalue { ptr, i32 } poison, ptr %21, 0
  %24 = insertvalue { ptr, i32 } %23, i32 %22, 1
  resume { ptr, i32 } %24
}